; Function Attrs: nounwind uwtable
define i32 @H5VLlink_specific(ptr noundef %0, ptr noundef %1, i64 noundef %2, ptr noundef %3, i64 noundef %4, ptr noundef %5) local_unnamed_addr #0 {
  %7 = icmp eq ptr %0, null
  br i1 %7, label %8, label %12, !prof !41

8:                                                ; preds = %6
  %9 = load i64, ptr @H5E_ARGS_g, align 8, !tbaa !3
  %10 = load i64, ptr @H5E_BADVALUE_g, align 8, !tbaa !3
  %11 = tail call i32 (ptr, ptr, i32, i64, i64, ptr, ...) @H5E_printf_stack(ptr noundef nonnull @.str, ptr noundef nonnull @__func__.H5VLlink_specific, i32 noundef 5627, i64 noundef %9, i64 noundef %10, ptr noundef nonnull @.str.17) #7
  br label %27

12:                                               ; preds = %6
  %13 = tail call ptr @H5I_object_verify(i64 noundef %2, i32 noundef 9) #7
  %14 = icmp eq ptr %13, null
  br i1 %14, label %15, label %19, !prof !41

15:                                               ; preds = %12
  %16 = load i64, ptr @H5E_ARGS_g, align 8, !tbaa !3
  %17 = load i64, ptr @H5E_BADTYPE_g, align 8, !tbaa !3
  %18 = tail call i32 (ptr, ptr, i32, i64, i64, ptr, ...) @H5E_printf_stack(ptr noundef nonnull @.str, ptr noundef nonnull @__func__.H5VLlink_specific, i32 noundef 5629, i64 noundef %16, i64 noundef %17, ptr noundef nonnull @.str.1) #7
  br label %27

19:                                               ; preds = %12
  %20 = load ptr, ptr %13, align 8, !tbaa !7
  %21 = tail call fastcc i32 @H5VL__link_specific(ptr noundef nonnull %0, ptr noundef %1, ptr noundef %20, ptr noundef %3, i64 noundef %4, ptr noundef %5)
  %22 = icmp slt i32 %21, 0
  br i1 %22, label %23, label %29

23:                                               ; preds = %19
  %24 = load i64, ptr @H5E_VOL_g, align 8, !tbaa !3
  %25 = load i64, ptr @H5E_CANTOPERATE_g, align 8, !tbaa !3
  %26 = tail call i32 (ptr, ptr, i32, i64, i64, ptr, ...) @H5E_printf_stack(ptr noundef nonnull @.str, ptr noundef nonnull @__func__.H5VLlink_specific, i32 noundef 5634, i64 noundef %24, i64 noundef %25, ptr noundef nonnull @.str.120) #7
  br label %29

27:                                               ; preds = %8, %15
  %28 = tail call i32 @H5E_dump_api_stack() #7
  br label %29

29:                                               ; preds = %23, %19, %27
  %.01117 = phi i32 [ -1, %27 ], [ %21, %23 ], [ %21, %19 ]
  ret i32 %.01117
}